; Function Attrs: nounwind sspstrong uwtable
define internal void @pr_manager_helper_instance_finalize(ptr noundef %obj) #0 {
entry:
  %call.i = tail call ptr @object_dynamic_cast_assert(ptr noundef %obj, ptr noundef nonnull @.str, ptr noundef nonnull @.str.2, i32 noundef 30, ptr noundef nonnull @__func__.PR_MANAGER_HELPER) #7
  %ioc = getelementptr inbounds nuw i8, ptr %call.i, i64 96
  %0 = load ptr, ptr %ioc, align 8
  tail call void @object_unref(ptr noundef %0) #7
  %lock = getelementptr inbounds nuw i8, ptr %call.i, i64 48
  tail call void @qemu_mutex_destroy(ptr noundef nonnull %lock) #7
  ret void
}